target datalayout = "e-m:e-p270:32:32-p271:32:32-p272:64:64-i64:64-i128:128-f80:128-n8:16:32:64-S128"
target triple = "x86_64-pc-linux-gnu"

%struct.lzma_filter = type { i64, ptr }
%struct.anon = type { i64, i64, i8, i8, i8 }

; Function Attrs: nounwind uwtable
define dso_local i32 @lzma_validate_chain(ptr noundef %0, ptr noundef %1) #0 {
  %3 = alloca i32, align 4
  %4 = alloca ptr, align 8
  %5 = alloca ptr, align 8
  %6 = alloca i64, align 8
  %7 = alloca i8, align 1
  %8 = alloca i8, align 1
  %9 = alloca i64, align 8
  %10 = alloca i64, align 8
  %11 = alloca i32, align 4
  store ptr %0, ptr %4, align 8, !tbaa !4
  store ptr %1, ptr %5, align 8, !tbaa !24
  %12 = load ptr, ptr %4, align 8, !tbaa !4
  %13 = icmp eq ptr %12, null
  br i1 %13, label %20, label %14

14:                                               ; preds = %2
  %15 = load ptr, ptr %4, align 8, !tbaa !4
  %16 = getelementptr inbounds %struct.lzma_filter, ptr %15, i64 0
  %17 = getelementptr inbounds nuw %struct.lzma_filter, ptr %16, i32 0, i32 0
  %18 = load i64, ptr %17, align 8, !tbaa !10
  %19 = icmp eq i64 %18, -1
  br i1 %19, label %20, label %21

20:                                               ; preds = %14, %2
  store i32 11, ptr %3, align 4
  br label %95

21:                                               ; preds = %14
  call void @llvm.lifetime.start.p0(i64 8, ptr %6) #4
  store i64 0, ptr %6, align 8, !tbaa !8
  call void @llvm.lifetime.start.p0(i64 1, ptr %7) #4
  store i8 1, ptr %7, align 1, !tbaa !26
  call void @llvm.lifetime.start.p0(i64 1, ptr %8) #4
  store i8 0, ptr %8, align 1, !tbaa !26
  call void @llvm.lifetime.start.p0(i64 8, ptr %9) #4
  store i64 0, ptr %9, align 8, !tbaa !8
  br label %22

22:                                               ; preds = %73, %21
  call void @llvm.lifetime.start.p0(i64 8, ptr %10) #4
  store i64 0, ptr %10, align 8, !tbaa !8
  br label %23

23:                                               ; preds = %42, %22
  %24 = load ptr, ptr %4, align 8, !tbaa !4
  %25 = load i64, ptr %9, align 8, !tbaa !8
  %26 = getelementptr inbounds nuw %struct.lzma_filter, ptr %24, i64 %25
  %27 = getelementptr inbounds nuw %struct.lzma_filter, ptr %26, i32 0, i32 0
  %28 = load i64, ptr %27, align 8, !tbaa !10
  %29 = load i64, ptr %10, align 8, !tbaa !8
  %30 = getelementptr inbounds nuw [11 x %struct.anon], ptr @features, i64 0, i64 %29
  %31 = getelementptr inbounds nuw %struct.anon, ptr %30, i32 0, i32 0
  %32 = load i64, ptr %31, align 8, !tbaa !15
  %33 = icmp ne i64 %28, %32
  br i1 %33, label %34, label %45

34:                                               ; preds = %23
  %35 = load i64, ptr %10, align 8, !tbaa !8
  %36 = getelementptr inbounds nuw [11 x %struct.anon], ptr @features, i64 0, i64 %35
  %37 = getelementptr inbounds nuw %struct.anon, ptr %36, i32 0, i32 0
  %38 = load i64, ptr %37, align 8, !tbaa !15
  %39 = icmp eq i64 %38, -1
  br i1 %39, label %40, label %41

40:                                               ; preds = %34
  store i32 8, ptr %3, align 4
  store i32 1, ptr %11, align 4
  br label %70

41:                                               ; preds = %34
  br label %42

42:                                               ; preds = %41
  %43 = load i64, ptr %10, align 8, !tbaa !8
  %44 = add i64 %43, 1
  store i64 %44, ptr %10, align 8, !tbaa !8
  br label %23, !llvm.loop !27

45:                                               ; preds = %23
  %46 = load i8, ptr %7, align 1, !tbaa !26, !range !28, !noundef !29
  %47 = trunc i8 %46 to i1
  br i1 %47, label %49, label %48

48:                                               ; preds = %45
  store i32 8, ptr %3, align 4
  store i32 1, ptr %11, align 4
  br label %70

49:                                               ; preds = %45
  %50 = load i64, ptr %10, align 8, !tbaa !8
  %51 = getelementptr inbounds nuw [11 x %struct.anon], ptr @features, i64 0, i64 %50
  %52 = getelementptr inbounds nuw %struct.anon, ptr %51, i32 0, i32 2
  %53 = load i8, ptr %52, align 8, !tbaa !30, !range !28, !noundef !29
  %54 = trunc i8 %53 to i1
  %55 = zext i1 %54 to i8
  store i8 %55, ptr %7, align 1, !tbaa !26
  %56 = load i64, ptr %10, align 8, !tbaa !8
  %57 = getelementptr inbounds nuw [11 x %struct.anon], ptr @features, i64 0, i64 %56
  %58 = getelementptr inbounds nuw %struct.anon, ptr %57, i32 0, i32 3
  %59 = load i8, ptr %58, align 1, !tbaa !31, !range !28, !noundef !29
  %60 = trunc i8 %59 to i1
  %61 = zext i1 %60 to i8
  store i8 %61, ptr %8, align 1, !tbaa !26
  %62 = load i64, ptr %10, align 8, !tbaa !8
  %63 = getelementptr inbounds nuw [11 x %struct.anon], ptr @features, i64 0, i64 %62
  %64 = getelementptr inbounds nuw %struct.anon, ptr %63, i32 0, i32 4
  %65 = load i8, ptr %64, align 2, !tbaa !32, !range !28, !noundef !29
  %66 = trunc i8 %65 to i1
  %67 = zext i1 %66 to i64
  %68 = load i64, ptr %6, align 8, !tbaa !8
  %69 = add i64 %68, %67
  store i64 %69, ptr %6, align 8, !tbaa !8
  store i32 0, ptr %11, align 4
  br label %70

70:                                               ; preds = %49, %48, %40
  call void @llvm.lifetime.end.p0(i64 8, ptr %10) #4
  %71 = load i32, ptr %11, align 4
  switch i32 %71, label %94 [
    i32 0, label %72
  ]

72:                                               ; preds = %70
  br label %73

73:                                               ; preds = %72
  %74 = load ptr, ptr %4, align 8, !tbaa !4
  %75 = load i64, ptr %9, align 8, !tbaa !8
  %76 = add i64 %75, 1
  store i64 %76, ptr %9, align 8, !tbaa !8
  %77 = getelementptr inbounds nuw %struct.lzma_filter, ptr %74, i64 %76
  %78 = getelementptr inbounds nuw %struct.lzma_filter, ptr %77, i32 0, i32 0
  %79 = load i64, ptr %78, align 8, !tbaa !10
  %80 = icmp ne i64 %79, -1
  br i1 %80, label %22, label %81, !llvm.loop !33

81:                                               ; preds = %73
  %82 = load i64, ptr %9, align 8, !tbaa !8
  %83 = icmp ugt i64 %82, 4
  br i1 %83, label %90, label %84

84:                                               ; preds = %81
  %85 = load i8, ptr %8, align 1, !tbaa !26, !range !28, !noundef !29
  %86 = trunc i8 %85 to i1
  br i1 %86, label %87, label %90

87:                                               ; preds = %84
  %88 = load i64, ptr %6, align 8, !tbaa !8
  %89 = icmp ugt i64 %88, 3
  br i1 %89, label %90, label %91

90:                                               ; preds = %87, %84, %81
  store i32 8, ptr %3, align 4
  store i32 1, ptr %11, align 4
  br label %94

91:                                               ; preds = %87
  %92 = load i64, ptr %9, align 8, !tbaa !8
  %93 = load ptr, ptr %5, align 8, !tbaa !24
  store i64 %92, ptr %93, align 8, !tbaa !8
  store i32 0, ptr %3, align 4
  store i32 1, ptr %11, align 4
  br label %94

94:                                               ; preds = %91, %90, %70
  call void @llvm.lifetime.end.p0(i64 8, ptr %9) #4
  call void @llvm.lifetime.end.p0(i64 1, ptr %8) #4
  call void @llvm.lifetime.end.p0(i64 1, ptr %7) #4
  call void @llvm.lifetime.end.p0(i64 8, ptr %6) #4
  br label %95

95:                                               ; preds = %94, %20
  %96 = load i32, ptr %3, align 4
  ret i32 %96
}