; Function Attrs: nofree norecurse nosync nounwind memory(argmem: readwrite) uwtable
define dso_local range(i32 0, 12) i32 @lzma_validate_chain(ptr noundef readonly %0, ptr noundef writeonly captures(none) %1) local_unnamed_addr #4 {
  %3 = icmp eq ptr %0, null
  br i1 %3, label %.thread, label %4

4:                                                ; preds = %2
  %5 = load i64, ptr %0, align 8, !tbaa !4
  %6 = icmp eq i64 %5, -1
  br i1 %6, label %.thread, label %.preheader

.preheader:                                       ; preds = %4, %13
  %7 = phi i64 [ %22, %13 ], [ %5, %4 ]
  %.026 = phi i64 [ %19, %13 ], [ 0, %4 ]
  %.024 = phi i8 [ %15, %13 ], [ 1, %4 ]
  %.022 = phi i64 [ %20, %13 ], [ 0, %4 ]
  %.not3346 = icmp eq i64 %7, 4611686018427387905
  br i1 %.not3346, label %._crit_edge, label %.lr.ph

8:                                                ; preds = %.lr.ph
  %9 = add nuw nsw i64 %.02147, 1
  %10 = getelementptr inbounds nuw [11 x %struct.anon], ptr @features, i64 0, i64 %9
  %11 = load i64, ptr %10, align 8, !tbaa !11
  %.not33 = icmp eq i64 %7, %11
  br i1 %.not33, label %._crit_edge, label %.lr.ph, !llvm.loop !20

.lr.ph:                                           ; preds = %.preheader, %8
  %.02147 = phi i64 [ %9, %8 ], [ 0, %.preheader ]
  %exitcond = icmp eq i64 %.02147, 10
  br i1 %exitcond, label %.thread, label %8

._crit_edge:                                      ; preds = %8, %.preheader
  %.lcssa = phi ptr [ @features, %.preheader ], [ %10, %8 ]
  %12 = trunc nuw i8 %.024 to i1
  br i1 %12, label %13, label %.thread

13:                                               ; preds = %._crit_edge
  %14 = getelementptr inbounds nuw i8, ptr %.lcssa, i64 16
  %15 = load i8, ptr %14, align 8, !tbaa !21, !range !22, !noundef !23
  %16 = getelementptr inbounds nuw i8, ptr %.lcssa, i64 18
  %17 = load i8, ptr %16, align 2, !tbaa !24, !range !22, !noundef !23
  %18 = zext nneg i8 %17 to i64
  %19 = add i64 %.026, %18
  %20 = add i64 %.022, 1
  %21 = getelementptr inbounds nuw %struct.lzma_filter, ptr %0, i64 %20
  %22 = load i64, ptr %21, align 8, !tbaa !4
  %.not34 = icmp eq i64 %22, -1
  br i1 %.not34, label %23, label %.preheader, !llvm.loop !25

23:                                               ; preds = %13
  %24 = getelementptr inbounds nuw i8, ptr %.lcssa, i64 17
  %25 = load i8, ptr %24, align 1, !tbaa !26, !range !22, !noundef !23
  %26 = icmp ult i64 %20, 5
  %27 = trunc nuw i8 %25 to i1
  %28 = icmp ult i64 %19, 4
  %29 = select i1 %26, i1 %27, i1 false
  %or.cond = select i1 %29, i1 %28, i1 false
  br i1 %or.cond, label %30, label %.thread

30:                                               ; preds = %23
  store i64 %20, ptr %1, align 8, !tbaa !27
  br label %.thread

.thread:                                          ; preds = %._crit_edge, %.lr.ph, %30, %23, %2, %4
  %.028 = phi i32 [ 11, %4 ], [ 11, %2 ], [ 0, %30 ], [ 8, %23 ], [ 8, %.lr.ph ], [ 8, %._crit_edge ]
  ret i32 %.028
}